; Function Attrs: mustprogress uwtable
define hidden void @_ZN3sls10smt_solver16reset_statisticsEv(ptr noundef nonnull readonly align 8 captures(none) dereferenceable(488) %0) local_unnamed_addr #3 align 2 {
  %2 = getelementptr inbounds nuw i8, ptr %0, i64 448
  %3 = load ptr, ptr %2, align 8, !tbaa !8
  %4 = getelementptr inbounds nuw i8, ptr %3, i64 24
  %5 = load ptr, ptr %4, align 8, !tbaa !77
  tail call void @_ZN3sat4ddfw16reset_statisticsEv(ptr noundef nonnull align 8 dereferenceable(434) %5)
  %6 = getelementptr inbounds nuw i8, ptr %3, i64 32
  tail call void @_ZN3sls7context16reset_statisticsEv(ptr noundef nonnull align 8 dereferenceable(321) %6)
  ret void
}